; ModuleID = '49/1150.c'
source_filename = "49/1150.c"
target datalayout = "e-m:e-p270:32:32-p271:32:32-p272:64:64-i64:64-f80:128-n8:16:32:64-S128"
target triple = "x86_64-pc-linux-gnu"

@.str = private unnamed_addr constant [3 x i8] c"%c\00", align 1
@.str.1 = private unnamed_addr constant [2 x i8] c"\0A\00", align 1

; Function Attrs: noinline nounwind uwtable
define dso_local i32 @main() #0 {
  %1 = alloca i32, align 4
  %2 = alloca [100 x i8], align 16
  %3 = alloca [100 x i8], align 16
  %4 = alloca [100 x i8], align 16
  %5 = alloca i32, align 4
  %6 = alloca i32, align 4
  %7 = alloca i32, align 4
  %8 = alloca i32, align 4
  store i32 0, i32* %1, align 4
  %9 = bitcast [100 x i8]* %2 to i8*
  call void @llvm.memset.p0i8.i64(i8* align 16 %9, i8 0, i64 100, i1 false)
  %10 = bitcast [100 x i8]* %3 to i8*
  call void @llvm.memset.p0i8.i64(i8* align 16 %10, i8 0, i64 100, i1 false)
  %11 = bitcast [100 x i8]* %4 to i8*
  call void @llvm.memset.p0i8.i64(i8* align 16 %11, i8 0, i64 100, i1 false)
  %12 = getelementptr inbounds [100 x i8], [100 x i8]* %2, i64 0, i64 0
  %13 = call i32 (i8*, ...) bitcast (i32 (...)* @gets to i32 (i8*, ...)*)(i8* %12)
  %14 = getelementptr inbounds [100 x i8], [100 x i8]* %2, i64 0, i64 0
  %15 = call i64 @strlen(i8* %14) #4
  %16 = trunc i64 %15 to i32
  store i32 %16, i32* %7, align 4
  store i32 2, i32* %8, align 4
  store i32 2, i32* %8, align 4
  br label %17

17:                                               ; preds = %95, %0
  %18 = load i32, i32* %8, align 4
  %19 = load i32, i32* %7, align 4
  %20 = icmp sle i32 %18, %19
  br i1 %20, label %21, label %98

21:                                               ; preds = %17
  store i32 0, i32* %5, align 4
  br label %22

22:                                               ; preds = %91, %21
  %23 = load i32, i32* %5, align 4
  %24 = load i32, i32* %7, align 4
  %25 = load i32, i32* %8, align 4
  %26 = sub nsw i32 %24, %25
  %27 = icmp sle i32 %23, %26
  br i1 %27, label %28, label %94

28:                                               ; preds = %22
  %29 = load i32, i32* %5, align 4
  store i32 %29, i32* %6, align 4
  br label %30

30:                                               ; preds = %46, %28
  %31 = load i32, i32* %6, align 4
  %32 = load i32, i32* %5, align 4
  %33 = load i32, i32* %8, align 4
  %34 = add nsw i32 %32, %33
  %35 = icmp slt i32 %31, %34
  br i1 %35, label %36, label %49

36:                                               ; preds = %30
  %37 = load i32, i32* %6, align 4
  %38 = sext i32 %37 to i64
  %39 = getelementptr inbounds [100 x i8], [100 x i8]* %2, i64 0, i64 %38
  %40 = load i8, i8* %39, align 1
  %41 = load i32, i32* %6, align 4
  %42 = load i32, i32* %5, align 4
  %43 = sub nsw i32 %41, %42
  %44 = sext i32 %43 to i64
  %45 = getelementptr inbounds [100 x i8], [100 x i8]* %3, i64 0, i64 %44
  store i8 %40, i8* %45, align 1
  br label %46

46:                                               ; preds = %36
  %47 = load i32, i32* %6, align 4
  %48 = add nsw i32 %47, 1
  store i32 %48, i32* %6, align 4
  br label %30

49:                                               ; preds = %30
  store i32 0, i32* %6, align 4
  br label %50

50:                                               ; preds = %65, %49
  %51 = load i32, i32* %6, align 4
  %52 = load i32, i32* %8, align 4
  %53 = icmp slt i32 %51, %52
  br i1 %53, label %54, label %68

54:                                               ; preds = %50
  %55 = load i32, i32* %8, align 4
  %56 = sub nsw i32 %55, 1
  %57 = load i32, i32* %6, align 4
  %58 = sub nsw i32 %56, %57
  %59 = sext i32 %58 to i64
  %60 = getelementptr inbounds [100 x i8], [100 x i8]* %3, i64 0, i64 %59
  %61 = load i8, i8* %60, align 1
  %62 = load i32, i32* %6, align 4
  %63 = sext i32 %62 to i64
  %64 = getelementptr inbounds [100 x i8], [100 x i8]* %4, i64 0, i64 %63
  store i8 %61, i8* %64, align 1
  br label %65

65:                                               ; preds = %54
  %66 = load i32, i32* %6, align 4
  %67 = add nsw i32 %66, 1
  store i32 %67, i32* %6, align 4
  br label %50

68:                                               ; preds = %50
  %69 = getelementptr inbounds [100 x i8], [100 x i8]* %3, i64 0, i64 0
  %70 = getelementptr inbounds [100 x i8], [100 x i8]* %4, i64 0, i64 0
  %71 = call i32 @strcmp(i8* %69, i8* %70) #4
  %72 = icmp eq i32 %71, 0
  br i1 %72, label %73, label %90

73:                                               ; preds = %68
  store i32 0, i32* %6, align 4
  br label %74

74:                                               ; preds = %85, %73
  %75 = load i32, i32* %6, align 4
  %76 = load i32, i32* %8, align 4
  %77 = icmp slt i32 %75, %76
  br i1 %77, label %78, label %88

78:                                               ; preds = %74
  %79 = load i32, i32* %6, align 4
  %80 = sext i32 %79 to i64
  %81 = getelementptr inbounds [100 x i8], [100 x i8]* %3, i64 0, i64 %80
  %82 = load i8, i8* %81, align 1
  %83 = sext i8 %82 to i32
  %84 = call i32 (i8*, ...) @printf(i8* getelementptr inbounds ([3 x i8], [3 x i8]* @.str, i64 0, i64 0), i32 %83)
  br label %85

85:                                               ; preds = %78
  %86 = load i32, i32* %6, align 4
  %87 = add nsw i32 %86, 1
  store i32 %87, i32* %6, align 4
  br label %74

88:                                               ; preds = %74
  %89 = call i32 (i8*, ...) @printf(i8* getelementptr inbounds ([2 x i8], [2 x i8]* @.str.1, i64 0, i64 0))
  br label %90

90:                                               ; preds = %88, %68
  br label %91

91:                                               ; preds = %90
  %92 = load i32, i32* %5, align 4
  %93 = add nsw i32 %92, 1
  store i32 %93, i32* %5, align 4
  br label %22

94:                                               ; preds = %22
  br label %95

95:                                               ; preds = %94
  %96 = load i32, i32* %8, align 4
  %97 = add nsw i32 %96, 1
  store i32 %97, i32* %8, align 4
  br label %17

98:                                               ; preds = %17
  ret i32 0
}

; Function Attrs: argmemonly nounwind willreturn
declare void @llvm.memset.p0i8.i64(i8* nocapture writeonly, i8, i64, i1 immarg) #1

declare dso_local i32 @gets(...) #2

; Function Attrs: nounwind readonly
declare dso_local i64 @strlen(i8*) #3

; Function Attrs: nounwind readonly
declare dso_local i32 @strcmp(i8*, i8*) #3

declare dso_local i32 @printf(i8*, ...) #2


!llvm.module.flags = !{!0}
!llvm.ident = !{!1}

!0 = !{i32 1, !"wchar_size", i32 4}
!1 = !{!"clang version 10.0.0-4ubuntu1 "}
